EXPORTS

accept=?accept@hijack@@YAHXZ @1
;bind=?bind@hijack@@YAHXZ @2
;closesocket=?closesocket@hijack@@YAHXZ @3
connect=?connect@hijack@@YAHXZ @4
getpeername=?getpeername@hijack@@YAHXZ @5
;getsockname=?getsockname@hijack@@YAHXZ @6
;getsockopt=?getsockopt@hijack@@YAHXZ @7
htonl=?htonl@hijack@@YAHXZ @8
htons=?htons@hijack@@YAHXZ @9
inet_addr=?inet_addr@hijack@@YAHXZ @10
inet_ntoa=?inet_ntoa@hijack@@YAHXZ @11
ioctlsocket=?ioctlsocket@hijack@@YAHXZ @12
listen=?listen@hijack@@YAHXZ @13
ntohl=?ntohl@hijack@@YAHXZ @14
ntohs=?ntohs@hijack@@YAHXZ @15
recv=?recv@hijack@@YAHXZ @16
;recvfrom=?recvfrom@hijack@@YAHXZ @17
select=?select@hijack@@YAHXZ @18
send=?send@hijack@@YAHXZ @19
;sendto=?sendto@hijack@@YAHXZ @20
;setsockopt=?setsockopt@hijack@@YAHXZ @21
shutdown=?shutdown@hijack@@YAHXZ @22
;socket=?socket@hijack@@YAHXZ @23
MigrateWinsockConfiguration=?MigrateWinsockConfiguration@hijack@@YAHXZ @24
gethostbyaddr=?gethostbyaddr@hijack@@YAHXZ @51
gethostbyname=?gethostbyname@hijack@@YAHXZ @52
getprotobyname=?getprotobyname@hijack@@YAHXZ @53
getprotobynumber=?getprotobynumber@hijack@@YAHXZ @54
getservbyname=?getservbyname@hijack@@YAHXZ @55
getservbyport=?getservbyport@hijack@@YAHXZ @56
gethostname=?gethostname@hijack@@YAHXZ @57
WSAAsyncSelect=?WSAAsyncSelect@hijack@@YAHXZ @101
WSAAsyncGetHostByAddr=?WSAAsyncGetHostByAddr@hijack@@YAHXZ @102
WSAAsyncGetHostByName=?WSAAsyncGetHostByName@hijack@@YAHXZ @103
WSAAsyncGetProtoByNumber=?WSAAsyncGetProtoByNumber@hijack@@YAHXZ @104
WSAAsyncGetProtoByName=?WSAAsyncGetProtoByName@hijack@@YAHXZ @105
WSAAsyncGetServByPort=?WSAAsyncGetServByPort@hijack@@YAHXZ @106
WSAAsyncGetServByName=?WSAAsyncGetServByName@hijack@@YAHXZ @107
WSACancelAsyncRequest=?WSACancelAsyncRequest@hijack@@YAHXZ @108
WSASetBlockingHook=?WSASetBlockingHook@hijack@@YAHXZ @109
WSAUnhookBlockingHook=?WSAUnhookBlockingHook@hijack@@YAHXZ @110
WSAGetLastError=?WSAGetLastError@hijack@@YAHXZ @111
WSASetLastError=?WSASetLastError@hijack@@YAHXZ @112
WSACancelBlockingCall=?WSACancelBlockingCall@hijack@@YAHXZ @113
WSAIsBlocking=?WSAIsBlocking@hijack@@YAHXZ @114
WSAStartup=?WSAStartup@hijack@@YAHXZ @115
WSACleanup=?WSACleanup@hijack@@YAHXZ @116
__WSAFDIsSet=?__WSAFDIsSet@hijack@@YAHXZ @151
WEP=?WEP@hijack@@YAHXZ @500
WSApSetPostRoutine=?WSApSetPostRoutine@hijack@@YAHXZ @1000
inet_network=?inet_network@hijack@@YAHXZ @1100
getnetbyname=?getnetbyname@hijack@@YAHXZ @1101
rcmd=?rcmd@hijack@@YAHXZ @1102
rexec=?rexec@hijack@@YAHXZ @1103
rresvport=?rresvport@hijack@@YAHXZ @1104
sethostname=?sethostname@hijack@@YAHXZ @1105
dn_expand=?dn_expand@hijack@@YAHXZ @1106
WSARecvEx=?WSARecvEx@hijack@@YAHXZ @1107
s_perror=?s_perror@hijack@@YAHXZ @1108
GetAddressByNameA=?GetAddressByNameA@hijack@@YAHXZ @1109
GetAddressByNameW=?GetAddressByNameW@hijack@@YAHXZ @1110
;EnumProtocolsA=?EnumProtocolsA@hijack@@YAHXZ @1111
EnumProtocolsW=?EnumProtocolsW@hijack@@YAHXZ @1112
GetTypeByNameA=?GetTypeByNameA@hijack@@YAHXZ @1113
GetTypeByNameW=?GetTypeByNameW@hijack@@YAHXZ @1114
GetNameByTypeA=?GetNameByTypeA@hijack@@YAHXZ @1115
GetNameByTypeW=?GetNameByTypeW@hijack@@YAHXZ @1116
SetServiceA=?SetServiceA@hijack@@YAHXZ @1117
SetServiceW=?SetServiceW@hijack@@YAHXZ @1118
GetServiceA=?GetServiceA@hijack@@YAHXZ @1119
GetServiceW=?GetServiceW@hijack@@YAHXZ @1120
NPLoadNameSpaces=?NPLoadNameSpaces@hijack@@YAHXZ @1130
TransmitFile=?TransmitFile@hijack@@YAHXZ @1140
AcceptEx=?AcceptEx@hijack@@YAHXZ @1141
GetAcceptExSockaddrs=?GetAcceptExSockaddrs@hijack@@YAHXZ @1142

;DllMain @10000

bind=my_bind @2
closesocket=my_closesocket @3
getsockname=my_getsockname @6
getsockopt=my_getsockopt @7
recvfrom=my_recvfrom @17
sendto=my_sendto @20
setsockopt=my_setsockopt @21
socket=my_socket @23
EnumProtocolsA=my_EnumProtocolsA @1111
